target datalayout = "e-m:e-p270:32:32-p271:32:32-p272:64:64-i64:64-i128:128-f80:128-n8:16:32:64-S128"
target triple = "x86_64-unknown-linux-gnu"

%"class.std::unique_ptr.301" = type { %"struct.std::__uniq_ptr_data.302" }
%"struct.std::__uniq_ptr_data.302" = type { %"class.std::__uniq_ptr_impl.303" }
%"class.std::__uniq_ptr_impl.303" = type { %"class.std::tuple.304" }
%"class.std::tuple.304" = type { %"struct.std::_Tuple_impl.305" }
%"struct.std::_Tuple_impl.305" = type { %"struct.std::_Head_base.308" }
%"struct.std::_Head_base.308" = type { ptr }

@.str.95 = private unnamed_addr constant [4 x i8] c"%s:\00", align 1
@.str.96 = private unnamed_addr constant [2 x i8] c"\22\00", align 1
@.str.97 = private unnamed_addr constant [3 x i8] c"\\\\\00", align 1
@.str.98 = private unnamed_addr constant [3 x i8] c"\\\22\00", align 1
@__const._ZN4node6cryptoL12PrintAltNameERKSt10unique_ptrI6bio_stNS_15FunctionDeleterIS2_XadL_Z12BIO_free_allEEEEEPKcmbS9_.hex = private unnamed_addr constant [17 x i8] c"0123456789abcdef\00", align 16

; Function Attrs: mustprogress nounwind uwtable
define linkonce_odr dso_local noundef nonnull align 8 dereferenceable(8) ptr @_ZNSt10_Head_baseILm0EP6bio_stLb0EE7_M_headERKS2_(ptr noundef nonnull align 8 dereferenceable(8) %__b) #4 comdat align 2 {
entry:
  %__b.addr = alloca ptr, align 8
  store ptr %__b, ptr %__b.addr, align 8
  %0 = load ptr, ptr %__b.addr, align 8
  %_M_head_impl = getelementptr inbounds %"struct.std::_Head_base.308", ptr %0, i32 0, i32 0
  ret ptr %_M_head_impl
}

; Function Attrs: mustprogress nounwind uwtable
define linkonce_odr dso_local noundef nonnull align 8 dereferenceable(8) ptr @_ZNSt11_Tuple_implILm0EJP6bio_stN4node15FunctionDeleterIS0_XadL_Z12BIO_free_allEEEEEE7_M_headERKS5_(ptr noundef nonnull align 8 dereferenceable(8) %__t) #4 comdat align 2 {
entry:
  %__t.addr = alloca ptr, align 8
  store ptr %__t, ptr %__t.addr, align 8
  %0 = load ptr, ptr %__t.addr, align 8
  %call = call noundef nonnull align 8 dereferenceable(8) ptr @_ZNSt10_Head_baseILm0EP6bio_stLb0EE7_M_headERKS2_(ptr noundef nonnull align 8 dereferenceable(8) %0) #3
  ret ptr %call
}

; Function Attrs: mustprogress nounwind uwtable
define linkonce_odr dso_local noundef nonnull align 8 dereferenceable(8) ptr @_ZSt12__get_helperILm0EP6bio_stJN4node15FunctionDeleterIS0_XadL_Z12BIO_free_allEEEEEERKT0_RKSt11_Tuple_implIXT_EJS5_DpT1_EE(ptr noundef nonnull align 8 dereferenceable(8) %__t) #4 comdat {
entry:
  %__t.addr = alloca ptr, align 8
  store ptr %__t, ptr %__t.addr, align 8
  %0 = load ptr, ptr %__t.addr, align 8
  %call = call noundef nonnull align 8 dereferenceable(8) ptr @_ZNSt11_Tuple_implILm0EJP6bio_stN4node15FunctionDeleterIS0_XadL_Z12BIO_free_allEEEEEE7_M_headERKS5_(ptr noundef nonnull align 8 dereferenceable(8) %0) #3
  ret ptr %call
}

; Function Attrs: mustprogress nounwind uwtable
define linkonce_odr dso_local noundef nonnull align 8 dereferenceable(8) ptr @_ZSt3getILm0EJP6bio_stN4node15FunctionDeleterIS0_XadL_Z12BIO_free_allEEEEEERKNSt13tuple_elementIXT_ESt5tupleIJDpT0_EEE4typeERKS9_(ptr noundef nonnull align 8 dereferenceable(8) %__t) #4 comdat {
entry:
  %__t.addr = alloca ptr, align 8
  store ptr %__t, ptr %__t.addr, align 8
  %0 = load ptr, ptr %__t.addr, align 8
  %call = call noundef nonnull align 8 dereferenceable(8) ptr @_ZSt12__get_helperILm0EP6bio_stJN4node15FunctionDeleterIS0_XadL_Z12BIO_free_allEEEEEERKT0_RKSt11_Tuple_implIXT_EJS5_DpT1_EE(ptr noundef nonnull align 8 dereferenceable(8) %0) #3
  ret ptr %call
}

; Function Attrs: mustprogress nounwind uwtable
define linkonce_odr dso_local noundef ptr @_ZNKSt15__uniq_ptr_implI6bio_stN4node15FunctionDeleterIS0_XadL_Z12BIO_free_allEEEEE6_M_ptrEv(ptr noundef nonnull align 8 dereferenceable(8) %this) #4 comdat align 2 {
entry:
  %this.addr = alloca ptr, align 8
  store ptr %this, ptr %this.addr, align 8
  %this1 = load ptr, ptr %this.addr, align 8
  %_M_t = getelementptr inbounds %"class.std::__uniq_ptr_impl.303", ptr %this1, i32 0, i32 0
  %call = call noundef nonnull align 8 dereferenceable(8) ptr @_ZSt3getILm0EJP6bio_stN4node15FunctionDeleterIS0_XadL_Z12BIO_free_allEEEEEERKNSt13tuple_elementIXT_ESt5tupleIJDpT0_EEE4typeERKS9_(ptr noundef nonnull align 8 dereferenceable(8) %_M_t) #3
  %0 = load ptr, ptr %call, align 8
  ret ptr %0
}

; Function Attrs: mustprogress nounwind uwtable
define linkonce_odr dso_local noundef ptr @_ZNKSt10unique_ptrI6bio_stN4node15FunctionDeleterIS0_XadL_Z12BIO_free_allEEEEE3getEv(ptr noundef nonnull align 8 dereferenceable(8) %this) #4 comdat align 2 {
entry:
  %this.addr = alloca ptr, align 8
  store ptr %this, ptr %this.addr, align 8
  %this1 = load ptr, ptr %this.addr, align 8
  %_M_t = getelementptr inbounds %"class.std::unique_ptr.301", ptr %this1, i32 0, i32 0
  %call = call noundef ptr @_ZNKSt15__uniq_ptr_implI6bio_stN4node15FunctionDeleterIS0_XadL_Z12BIO_free_allEEEEE6_M_ptrEv(ptr noundef nonnull align 8 dereferenceable(8) %_M_t) #3
  ret ptr %call
}

; Function Attrs: mustprogress nounwind uwtable
define internal noundef zeroext i1 @_ZN4node6cryptoL13IsSafeAltNameEPKcmb(ptr noundef %name, i64 noundef %length, i1 noundef zeroext %utf8) #4 {
entry:
  %retval = alloca i1, align 1
  %name.addr = alloca ptr, align 8
  %length.addr = alloca i64, align 8
  %utf8.addr = alloca i8, align 1
  %i = alloca i64, align 8
  %c = alloca i8, align 1
  store ptr %name, ptr %name.addr, align 8
  store i64 %length, ptr %length.addr, align 8
  %frombool = zext i1 %utf8 to i8
  store i8 %frombool, ptr %utf8.addr, align 1
  store i64 0, ptr %i, align 8
  br label %for.cond

for.cond:                                         ; preds = %for.inc, %entry
  %0 = load i64, ptr %i, align 8
  %1 = load i64, ptr %length.addr, align 8
  %cmp = icmp ult i64 %0, %1
  br i1 %cmp, label %for.body, label %for.end

for.body:                                         ; preds = %for.cond
  %2 = load ptr, ptr %name.addr, align 8
  %3 = load i64, ptr %i, align 8
  %arrayidx = getelementptr inbounds i8, ptr %2, i64 %3
  %4 = load i8, ptr %arrayidx, align 1
  store i8 %4, ptr %c, align 1
  %5 = load i8, ptr %c, align 1
  %conv = sext i8 %5 to i32
  switch i32 %conv, label %sw.default [
    i32 34, label %sw.bb
    i32 92, label %sw.bb
    i32 44, label %sw.bb
    i32 39, label %sw.bb
  ]

sw.bb:                                            ; preds = %for.body, %for.body, %for.body, %for.body
  store i1 false, ptr %retval, align 1
  br label %return

sw.default:                                       ; preds = %for.body
  %6 = load i8, ptr %utf8.addr, align 1
  %tobool = trunc i8 %6 to i1
  br i1 %tobool, label %if.then, label %if.else

if.then:                                          ; preds = %sw.default
  %7 = load i8, ptr %c, align 1
  %conv1 = zext i8 %7 to i32
  %cmp2 = icmp slt i32 %conv1, 32
  br i1 %cmp2, label %if.then5, label %lor.lhs.false

lor.lhs.false:                                    ; preds = %if.then
  %8 = load i8, ptr %c, align 1
  %conv3 = sext i8 %8 to i32
  %cmp4 = icmp eq i32 %conv3, 127
  br i1 %cmp4, label %if.then5, label %if.end

if.then5:                                         ; preds = %lor.lhs.false, %if.then
  store i1 false, ptr %retval, align 1
  br label %return

if.end:                                           ; preds = %lor.lhs.false
  br label %if.end13

if.else:                                          ; preds = %sw.default
  %9 = load i8, ptr %c, align 1
  %conv6 = sext i8 %9 to i32
  %cmp7 = icmp slt i32 %conv6, 32
  br i1 %cmp7, label %if.then11, label %lor.lhs.false8

lor.lhs.false8:                                   ; preds = %if.else
  %10 = load i8, ptr %c, align 1
  %conv9 = sext i8 %10 to i32
  %cmp10 = icmp sgt i32 %conv9, 126
  br i1 %cmp10, label %if.then11, label %if.end12

if.then11:                                        ; preds = %lor.lhs.false8, %if.else
  store i1 false, ptr %retval, align 1
  br label %return

if.end12:                                         ; preds = %lor.lhs.false8
  br label %if.end13

if.end13:                                         ; preds = %if.end12, %if.end
  br label %sw.epilog

sw.epilog:                                        ; preds = %if.end13
  br label %for.inc

for.inc:                                          ; preds = %sw.epilog
  %11 = load i64, ptr %i, align 8
  %inc = add i64 %11, 1
  store i64 %inc, ptr %i, align 8
  br label %for.cond, !llvm.loop !19

for.end:                                          ; preds = %for.cond
  store i1 true, ptr %retval, align 1
  br label %return

return:                                           ; preds = %for.end, %if.then11, %if.then5, %sw.bb
  %12 = load i1, ptr %retval, align 1
  ret i1 %12
}

; Function Attrs: mustprogress nounwind uwtable
define internal void @_ZN4node6cryptoL12PrintAltNameERKSt10unique_ptrI6bio_stNS_15FunctionDeleterIS2_XadL_Z12BIO_free_allEEEEEPKcmbS9_(ptr noundef nonnull align 8 dereferenceable(8) %out, ptr noundef %name, i64 noundef %length, i1 noundef zeroext %utf8, ptr noundef %safe_prefix) #4 {
entry:
  %out.addr = alloca ptr, align 8
  %name.addr = alloca ptr, align 8
  %length.addr = alloca i64, align 8
  %utf8.addr = alloca i8, align 1
  %safe_prefix.addr = alloca ptr, align 8
  %j = alloca i64, align 8
  %c = alloca i8, align 1
  %hex = alloca [17 x i8], align 16
  %u = alloca [6 x i8], align 1
  store ptr %out, ptr %out.addr, align 8
  store ptr %name, ptr %name.addr, align 8
  store i64 %length, ptr %length.addr, align 8
  %frombool = zext i1 %utf8 to i8
  store i8 %frombool, ptr %utf8.addr, align 1
  store ptr %safe_prefix, ptr %safe_prefix.addr, align 8
  %0 = load ptr, ptr %name.addr, align 8
  %1 = load i64, ptr %length.addr, align 8
  %2 = load i8, ptr %utf8.addr, align 1
  %tobool = trunc i8 %2 to i1
  %call = call noundef zeroext i1 @_ZN4node6cryptoL13IsSafeAltNameEPKcmb(ptr noundef %0, i64 noundef %1, i1 noundef zeroext %tobool)
  br i1 %call, label %if.then, label %if.else

if.then:                                          ; preds = %entry
  %3 = load ptr, ptr %safe_prefix.addr, align 8
  %cmp = icmp ne ptr %3, null
  br i1 %cmp, label %if.then1, label %if.end

if.then1:                                         ; preds = %if.then
  %4 = load ptr, ptr %out.addr, align 8
  %call2 = call noundef ptr @_ZNKSt10unique_ptrI6bio_stN4node15FunctionDeleterIS0_XadL_Z12BIO_free_allEEEEE3getEv(ptr noundef nonnull align 8 dereferenceable(8) %4) #3
  %5 = load ptr, ptr %safe_prefix.addr, align 8
  %call3 = call i32 (ptr, ptr, ...) @BIO_printf(ptr noundef %call2, ptr noundef @.str.95, ptr noundef %5)
  br label %if.end

if.end:                                           ; preds = %if.then1, %if.then
  %6 = load ptr, ptr %out.addr, align 8
  %call4 = call noundef ptr @_ZNKSt10unique_ptrI6bio_stN4node15FunctionDeleterIS0_XadL_Z12BIO_free_allEEEEE3getEv(ptr noundef nonnull align 8 dereferenceable(8) %6) #3
  %7 = load ptr, ptr %name.addr, align 8
  %8 = load i64, ptr %length.addr, align 8
  %conv = trunc i64 %8 to i32
  %call5 = call i32 @BIO_write(ptr noundef %call4, ptr noundef %7, i32 noundef %conv)
  br label %if.end59

if.else:                                          ; preds = %entry
  %9 = load ptr, ptr %out.addr, align 8
  %call6 = call noundef ptr @_ZNKSt10unique_ptrI6bio_stN4node15FunctionDeleterIS0_XadL_Z12BIO_free_allEEEEE3getEv(ptr noundef nonnull align 8 dereferenceable(8) %9) #3
  %call7 = call i32 @BIO_write(ptr noundef %call6, ptr noundef @.str.96, i32 noundef 1)
  %10 = load ptr, ptr %safe_prefix.addr, align 8
  %cmp8 = icmp ne ptr %10, null
  br i1 %cmp8, label %if.then9, label %if.end12

if.then9:                                         ; preds = %if.else
  %11 = load ptr, ptr %out.addr, align 8
  %call10 = call noundef ptr @_ZNKSt10unique_ptrI6bio_stN4node15FunctionDeleterIS0_XadL_Z12BIO_free_allEEEEE3getEv(ptr noundef nonnull align 8 dereferenceable(8) %11) #3
  %12 = load ptr, ptr %safe_prefix.addr, align 8
  %call11 = call i32 (ptr, ptr, ...) @BIO_printf(ptr noundef %call10, ptr noundef @.str.95, ptr noundef %12)
  br label %if.end12

if.end12:                                         ; preds = %if.then9, %if.else
  store i64 0, ptr %j, align 8
  br label %for.cond

for.cond:                                         ; preds = %for.inc, %if.end12
  %13 = load i64, ptr %j, align 8
  %14 = load i64, ptr %length.addr, align 8
  %cmp13 = icmp ult i64 %13, %14
  br i1 %cmp13, label %for.body, label %for.end

for.body:                                         ; preds = %for.cond
  %15 = load ptr, ptr %name.addr, align 8
  %16 = load i64, ptr %j, align 8
  %arrayidx = getelementptr inbounds i8, ptr %15, i64 %16
  %17 = load i8, ptr %arrayidx, align 1
  store i8 %17, ptr %c, align 1
  %18 = load i8, ptr %c, align 1
  %conv14 = sext i8 %18 to i32
  %cmp15 = icmp eq i32 %conv14, 92
  br i1 %cmp15, label %if.then16, label %if.else19

if.then16:                                        ; preds = %for.body
  %19 = load ptr, ptr %out.addr, align 8
  %call17 = call noundef ptr @_ZNKSt10unique_ptrI6bio_stN4node15FunctionDeleterIS0_XadL_Z12BIO_free_allEEEEE3getEv(ptr noundef nonnull align 8 dereferenceable(8) %19) #3
  %call18 = call i32 @BIO_write(ptr noundef %call17, ptr noundef @.str.97, i32 noundef 2)
  br label %if.end56

if.else19:                                        ; preds = %for.body
  %20 = load i8, ptr %c, align 1
  %conv20 = sext i8 %20 to i32
  %cmp21 = icmp eq i32 %conv20, 34
  br i1 %cmp21, label %if.then22, label %if.else25

if.then22:                                        ; preds = %if.else19
  %21 = load ptr, ptr %out.addr, align 8
  %call23 = call noundef ptr @_ZNKSt10unique_ptrI6bio_stN4node15FunctionDeleterIS0_XadL_Z12BIO_free_allEEEEE3getEv(ptr noundef nonnull align 8 dereferenceable(8) %21) #3
  %call24 = call i32 @BIO_write(ptr noundef %call23, ptr noundef @.str.98, i32 noundef 2)
  br label %if.end55

if.else25:                                        ; preds = %if.else19
  %22 = load i8, ptr %c, align 1
  %conv26 = sext i8 %22 to i32
  %cmp27 = icmp sge i32 %conv26, 32
  br i1 %cmp27, label %land.lhs.true, label %lor.lhs.false

land.lhs.true:                                    ; preds = %if.else25
  %23 = load i8, ptr %c, align 1
  %conv28 = sext i8 %23 to i32
  %cmp29 = icmp ne i32 %conv28, 44
  br i1 %cmp29, label %land.lhs.true30, label %lor.lhs.false

land.lhs.true30:                                  ; preds = %land.lhs.true
  %24 = load i8, ptr %c, align 1
  %conv31 = sext i8 %24 to i32
  %cmp32 = icmp sle i32 %conv31, 126
  br i1 %cmp32, label %if.then37, label %lor.lhs.false

lor.lhs.false:                                    ; preds = %land.lhs.true30, %land.lhs.true, %if.else25
  %25 = load i8, ptr %utf8.addr, align 1
  %tobool33 = trunc i8 %25 to i1
  br i1 %tobool33, label %land.lhs.true34, label %if.else40

land.lhs.true34:                                  ; preds = %lor.lhs.false
  %26 = load i8, ptr %c, align 1
  %conv35 = sext i8 %26 to i32
  %and = and i32 %conv35, 128
  %tobool36 = icmp ne i32 %and, 0
  br i1 %tobool36, label %if.then37, label %if.else40

if.then37:                                        ; preds = %land.lhs.true34, %land.lhs.true30
  %27 = load ptr, ptr %out.addr, align 8
  %call38 = call noundef ptr @_ZNKSt10unique_ptrI6bio_stN4node15FunctionDeleterIS0_XadL_Z12BIO_free_allEEEEE3getEv(ptr noundef nonnull align 8 dereferenceable(8) %27) #3
  %call39 = call i32 @BIO_write(ptr noundef %call38, ptr noundef %c, i32 noundef 1)
  br label %if.end54

if.else40:                                        ; preds = %land.lhs.true34, %lor.lhs.false
  call void @llvm.memcpy.p0.p0.i64(ptr align 16 %hex, ptr align 16 @__const._ZN4node6cryptoL12PrintAltNameERKSt10unique_ptrI6bio_stNS_15FunctionDeleterIS2_XadL_Z12BIO_free_allEEEEEPKcmbS9_.hex, i64 17, i1 false)
  %arrayinit.begin = getelementptr inbounds [6 x i8], ptr %u, i64 0, i64 0
  store i8 92, ptr %arrayinit.begin, align 1
  %arrayinit.element = getelementptr inbounds i8, ptr %arrayinit.begin, i64 1
  store i8 117, ptr %arrayinit.element, align 1
  %arrayinit.element41 = getelementptr inbounds i8, ptr %arrayinit.element, i64 1
  store i8 48, ptr %arrayinit.element41, align 1
  %arrayinit.element42 = getelementptr inbounds i8, ptr %arrayinit.element41, i64 1
  store i8 48, ptr %arrayinit.element42, align 1
  %arrayinit.element43 = getelementptr inbounds i8, ptr %arrayinit.element42, i64 1
  %28 = load i8, ptr %c, align 1
  %conv44 = sext i8 %28 to i32
  %and45 = and i32 %conv44, 240
  %shr = ashr i32 %and45, 4
  %idxprom = sext i32 %shr to i64
  %arrayidx46 = getelementptr inbounds [17 x i8], ptr %hex, i64 0, i64 %idxprom
  %29 = load i8, ptr %arrayidx46, align 1
  store i8 %29, ptr %arrayinit.element43, align 1
  %arrayinit.element47 = getelementptr inbounds i8, ptr %arrayinit.element43, i64 1
  %30 = load i8, ptr %c, align 1
  %conv48 = sext i8 %30 to i32
  %and49 = and i32 %conv48, 15
  %idxprom50 = sext i32 %and49 to i64
  %arrayidx51 = getelementptr inbounds [17 x i8], ptr %hex, i64 0, i64 %idxprom50
  %31 = load i8, ptr %arrayidx51, align 1
  store i8 %31, ptr %arrayinit.element47, align 1
  %32 = load ptr, ptr %out.addr, align 8
  %call52 = call noundef ptr @_ZNKSt10unique_ptrI6bio_stN4node15FunctionDeleterIS0_XadL_Z12BIO_free_allEEEEE3getEv(ptr noundef nonnull align 8 dereferenceable(8) %32) #3
  %arraydecay = getelementptr inbounds [6 x i8], ptr %u, i64 0, i64 0
  %call53 = call i32 @BIO_write(ptr noundef %call52, ptr noundef %arraydecay, i32 noundef 6)
  br label %if.end54

if.end54:                                         ; preds = %if.else40, %if.then37
  br label %if.end55

if.end55:                                         ; preds = %if.end54, %if.then22
  br label %if.end56

if.end56:                                         ; preds = %if.end55, %if.then16
  br label %for.inc

for.inc:                                          ; preds = %if.end56
  %33 = load i64, ptr %j, align 8
  %inc = add i64 %33, 1
  store i64 %inc, ptr %j, align 8
  br label %for.cond, !llvm.loop !18

for.end:                                          ; preds = %for.cond
  %34 = load ptr, ptr %out.addr, align 8
  %call57 = call noundef ptr @_ZNKSt10unique_ptrI6bio_stN4node15FunctionDeleterIS0_XadL_Z12BIO_free_allEEEEE3getEv(ptr noundef nonnull align 8 dereferenceable(8) %34) #3
  %call58 = call i32 @BIO_write(ptr noundef %call57, ptr noundef @.str.96, i32 noundef 1)
  br label %if.end59

if.end59:                                         ; preds = %for.end, %if.end
  ret void
}