; Function Attrs: mustprogress nounwind uwtable
define internal fastcc void @_ZN4node6cryptoL12PrintAltNameERKSt10unique_ptrI6bio_stNS_15FunctionDeleterIS2_XadL_Z12BIO_free_allEEEEEPKcmbS9_(ptr nocapture noundef nonnull readonly align 8 dereferenceable(8) %out, ptr noundef %name, i64 noundef %length, i1 noundef zeroext %utf8, ptr noundef %safe_prefix) unnamed_addr #3 {
entry:
  %c = alloca i8, align 1
  %u = alloca [6 x i8], align 4
  %cmp8.i = icmp eq i64 %length, 0
  br i1 %cmp8.i, label %if.then, label %for.body.lr.ph.i

for.body.lr.ph.i:                                 ; preds = %entry
  br i1 %utf8, label %for.body.us.i, label %for.body.i

for.body.us.i:                                    ; preds = %for.body.lr.ph.i, %for.inc.us.i
  %cmp10.us.i = phi i1 [ %cmp.us.i, %for.inc.us.i ], [ false, %for.body.lr.ph.i ]
  %i.09.us.i = phi i64 [ %inc.us.i, %for.inc.us.i ], [ 0, %for.body.lr.ph.i ]
  %arrayidx.us.i = getelementptr inbounds i8, ptr %name, i64 %i.09.us.i
  %0 = load i8, ptr %arrayidx.us.i, align 1
  switch i8 %0, label %sw.default.us.i [
    i8 34, label %_ZN4node6cryptoL13IsSafeAltNameEPKcmb.exit
    i8 92, label %_ZN4node6cryptoL13IsSafeAltNameEPKcmb.exit
    i8 44, label %_ZN4node6cryptoL13IsSafeAltNameEPKcmb.exit
    i8 39, label %_ZN4node6cryptoL13IsSafeAltNameEPKcmb.exit
  ]

sw.default.us.i:                                  ; preds = %for.body.us.i
  %cmp2.us.i = icmp ult i8 %0, 32
  %cmp4.us.i = icmp eq i8 %0, 127
  %or.cond.us.i = or i1 %cmp2.us.i, %cmp4.us.i
  br i1 %or.cond.us.i, label %_ZN4node6cryptoL13IsSafeAltNameEPKcmb.exit, label %for.inc.us.i

for.inc.us.i:                                     ; preds = %sw.default.us.i
  %inc.us.i = add nuw i64 %i.09.us.i, 1
  %cmp.us.i = icmp uge i64 %inc.us.i, %length
  %exitcond27.i = icmp eq i64 %inc.us.i, %length
  br i1 %exitcond27.i, label %_ZN4node6cryptoL13IsSafeAltNameEPKcmb.exit, label %for.body.us.i, !llvm.loop !30

for.body.i:                                       ; preds = %for.body.lr.ph.i, %for.inc.i
  %cmp10.i = phi i1 [ %cmp.i, %for.inc.i ], [ false, %for.body.lr.ph.i ]
  %i.09.i = phi i64 [ %inc.i, %for.inc.i ], [ 0, %for.body.lr.ph.i ]
  %arrayidx.i = getelementptr inbounds i8, ptr %name, i64 %i.09.i
  %1 = load i8, ptr %arrayidx.i, align 1
  switch i8 %1, label %sw.default.i [
    i8 34, label %_ZN4node6cryptoL13IsSafeAltNameEPKcmb.exit
    i8 92, label %_ZN4node6cryptoL13IsSafeAltNameEPKcmb.exit
    i8 44, label %_ZN4node6cryptoL13IsSafeAltNameEPKcmb.exit
    i8 39, label %_ZN4node6cryptoL13IsSafeAltNameEPKcmb.exit
  ]

sw.default.i:                                     ; preds = %for.body.i
  %2 = add i8 %1, -127
  %or.cond1.i = icmp ult i8 %2, -95
  br i1 %or.cond1.i, label %_ZN4node6cryptoL13IsSafeAltNameEPKcmb.exit, label %for.inc.i

for.inc.i:                                        ; preds = %sw.default.i
  %inc.i = add nuw i64 %i.09.i, 1
  %cmp.i = icmp uge i64 %inc.i, %length
  %exitcond.i = icmp eq i64 %inc.i, %length
  br i1 %exitcond.i, label %_ZN4node6cryptoL13IsSafeAltNameEPKcmb.exit, label %for.body.i, !llvm.loop !30

_ZN4node6cryptoL13IsSafeAltNameEPKcmb.exit:       ; preds = %for.body.i, %for.body.i, %for.body.i, %for.body.i, %sw.default.i, %for.inc.i, %for.body.us.i, %for.body.us.i, %for.body.us.i, %for.body.us.i, %sw.default.us.i, %for.inc.us.i
  %cmp.lcssa.i = phi i1 [ %cmp10.us.i, %for.body.us.i ], [ %cmp10.us.i, %for.body.us.i ], [ %cmp10.us.i, %for.body.us.i ], [ %cmp10.us.i, %for.body.us.i ], [ %cmp10.us.i, %sw.default.us.i ], [ %cmp.us.i, %for.inc.us.i ], [ %cmp10.i, %for.body.i ], [ %cmp10.i, %for.body.i ], [ %cmp10.i, %for.body.i ], [ %cmp10.i, %for.body.i ], [ %cmp10.i, %sw.default.i ], [ %cmp.i, %for.inc.i ]
  br i1 %cmp.lcssa.i, label %if.then, label %if.else

if.then:                                          ; preds = %entry, %_ZN4node6cryptoL13IsSafeAltNameEPKcmb.exit
  %cmp.not = icmp eq ptr %safe_prefix, null
  br i1 %cmp.not, label %if.end, label %if.then1

if.then1:                                         ; preds = %if.then
  %3 = load ptr, ptr %out, align 8
  %call3 = tail call i32 (ptr, ptr, ...) @BIO_printf(ptr noundef %3, ptr noundef nonnull @.str.95, ptr noundef nonnull %safe_prefix) #17
  br label %if.end

if.end:                                           ; preds = %if.then1, %if.then
  %4 = load ptr, ptr %out, align 8
  %conv = trunc i64 %length to i32
  %call5 = tail call i32 @BIO_write(ptr noundef %4, ptr noundef %name, i32 noundef %conv) #17
  br label %if.end59

if.else:                                          ; preds = %_ZN4node6cryptoL13IsSafeAltNameEPKcmb.exit
  %5 = load ptr, ptr %out, align 8
  %call7 = tail call i32 @BIO_write(ptr noundef %5, ptr noundef nonnull @.str.96, i32 noundef 1) #17
  %cmp8.not = icmp eq ptr %safe_prefix, null
  br i1 %cmp8.not, label %if.end12, label %if.then9

if.then9:                                         ; preds = %if.else
  %6 = load ptr, ptr %out, align 8
  %call11 = tail call i32 (ptr, ptr, ...) @BIO_printf(ptr noundef %6, ptr noundef nonnull @.str.95, ptr noundef nonnull %safe_prefix) #17
  br label %if.end12

if.end12:                                         ; preds = %if.then9, %if.else
  %arrayinit.element43 = getelementptr inbounds i8, ptr %u, i64 4
  %arrayinit.element47 = getelementptr inbounds i8, ptr %u, i64 5
  %umax = tail call i64 @llvm.umax.i64(i64 %length, i64 1)
  br label %for.body

for.body:                                         ; preds = %if.end12, %for.inc
  %j.023 = phi i64 [ 0, %if.end12 ], [ %inc, %for.inc ]
  %arrayidx = getelementptr inbounds i8, ptr %name, i64 %j.023
  %7 = load i8, ptr %arrayidx, align 1
  store i8 %7, ptr %c, align 1
  switch i8 %7, label %if.else25 [
    i8 92, label %if.then16
    i8 34, label %if.then22
  ]

if.then16:                                        ; preds = %for.body
  %8 = load ptr, ptr %out, align 8
  %call18 = call i32 @BIO_write(ptr noundef %8, ptr noundef nonnull @.str.97, i32 noundef 2) #17
  br label %for.inc

if.then22:                                        ; preds = %for.body
  %9 = load ptr, ptr %out, align 8
  %call24 = call i32 @BIO_write(ptr noundef %9, ptr noundef nonnull @.str.98, i32 noundef 2) #17
  br label %for.inc

if.else25:                                        ; preds = %for.body
  %cmp29 = icmp ne i8 %7, 44
  %10 = add i8 %7, -32
  %11 = icmp ult i8 %10, 95
  %or.cond1 = and i1 %cmp29, %11
  %tobool36.not = icmp slt i8 %7, 0
  %or.cond.not = and i1 %tobool36.not, %utf8
  %or.cond = or i1 %or.cond.not, %or.cond1
  br i1 %or.cond, label %if.then37, label %if.else40

if.then37:                                        ; preds = %if.else25
  %12 = load ptr, ptr %out, align 8
  %call39 = call i32 @BIO_write(ptr noundef %12, ptr noundef nonnull %c, i32 noundef 1) #17
  br label %for.inc

if.else40:                                        ; preds = %if.else25
  store <4 x i8> <i8 92, i8 117, i8 48, i8 48>, ptr %u, align 4
  %13 = lshr i8 %7, 4
  %idxprom = zext nneg i8 %13 to i64
  %arrayidx46 = getelementptr inbounds [17 x i8], ptr @__const._ZN4node6cryptoL12PrintAltNameERKSt10unique_ptrI6bio_stNS_15FunctionDeleterIS2_XadL_Z12BIO_free_allEEEEEPKcmbS9_.hex, i64 0, i64 %idxprom
  %14 = load i8, ptr %arrayidx46, align 1
  store i8 %14, ptr %arrayinit.element43, align 4
  %15 = and i8 %7, 15
  %idxprom50 = zext nneg i8 %15 to i64
  %arrayidx51 = getelementptr inbounds [17 x i8], ptr @__const._ZN4node6cryptoL12PrintAltNameERKSt10unique_ptrI6bio_stNS_15FunctionDeleterIS2_XadL_Z12BIO_free_allEEEEEPKcmbS9_.hex, i64 0, i64 %idxprom50
  %16 = load i8, ptr %arrayidx51, align 1
  store i8 %16, ptr %arrayinit.element47, align 1
  %17 = load ptr, ptr %out, align 8
  %call53 = call i32 @BIO_write(ptr noundef %17, ptr noundef nonnull %u, i32 noundef 6) #17
  br label %for.inc

for.inc:                                          ; preds = %if.then16, %if.then37, %if.else40, %if.then22
  %inc = add nuw i64 %j.023, 1
  %exitcond.not = icmp eq i64 %inc, %umax
  br i1 %exitcond.not, label %for.end, label %for.body, !llvm.loop !31

for.end:                                          ; preds = %for.inc
  %18 = load ptr, ptr %out, align 8
  %call58 = call i32 @BIO_write(ptr noundef %18, ptr noundef nonnull @.str.96, i32 noundef 1) #17
  br label %if.end59

if.end59:                                         ; preds = %for.end, %if.end
  ret void
}